EXPORTS
    Assign @1
    CG1 @2
    ConName @3
    ConNum @4
    ContQN @5
    HamSize @6
    InitCo @7
    InitPa @8
    Inten @9
    Name @10
    NextQN @11
    ParName @12
    ParNum @13
    QNBase @14
    QNName @15
    QNnumB @16
    QNnumG @17
    SJS @18
    StName @19
    StaNum @20
    StartQN @21
    TJS @22
    WNJ @23
    _Z10StatWeightjPiPd @24
    _Z12parIntensityiPiS_3idxiPdS1_d @25
    _Z13lReverseIndexPiiii @26
    _Z13perpIntensityiPiS_3idxiiiPdS1_d @27
    _Z1Cdd @28
    _Z1Fdd @29
    _Z1Gddd @30
    _Z1Pdd @31
    _Z1Qdd @32
    _Z1gdd @33
    _Z2Fedd @34
    _Z2Rodd @35
    _Z3FNKii @36
    _Z3Fmmii @37
    _Z3Fpmii @38
    _Z3Fppii @39
    _Z3Fzzii @40
    _Z3Psidd @41
    _Z4JJNNiiii @42
    _Z4NSSWii @43
    _Z4SWNJPdS_S_S_S_S_S_S_S_ @44
    _Z5TDM3Jiiiii @45
    _Z5TDM6Jiiii @46
    _Z5lfabsd @47
    _Z6HamiltjPdPiPPSt7complexIdEPS0_ @48
    _Z6lIndexPii @49
    _Z7DHamiltjPdPiPPSt7complexIdEi @50
    _ZNKSt7complexIdE4imagEv @51
    _ZNKSt7complexIdE4realEv @52
    _ZNSt7complexIdEC1Edd @53
    _ZNSt7complexIdEaSEd @54
    _ZNSt7complexIdEmIIdEERS0_RKS_IT_E @55
    _ZNSt7complexIdEmLEd @56
    _ZNSt7complexIdEpLEd @57
    _ZNSt7complexIdEpLIdEERS0_RKS_IT_E @58
    _ZSt13__complex_expIdESt7complexIT_ERKS2_ @59
    _ZSt3absd @60
    _ZSt3expIdESt7complexIT_ERKS2_ @61
    _ZSt3powdi @62
    _ZSt4sqrtIiEN9__gnu_cxx11__enable_ifIXsrSt12__is_integerIT_E7__valueEdE6__typeES3_ @63
    _ZSt5polarIdESt7complexIT_ERKS1_S4_ @64
    _ZStmlIdESt7complexIT_ERKS1_RKS2_ @65
    _ZStmlIdESt7complexIT_ERKS2_RKS1_ @66
    _ZStplIdESt7complexIT_ERKS2_RKS1_ @67
    c_ @68
    cg_ @69
    del_ @70
    flog_ @71
    w_ @72
